(dp0
Vsoma
p1
(lp2
cnumpy.core.multiarray
scalar
p3
(cnumpy
dtype
p4
(S'f8'
p5
I0
I1
tp6
Rp7
(I3
S'<'
p8
NNNI-1
I-1
I0
tp9
bS'R\x18%\xa1\x03\xceZ?'
p10
tp11
Rp12
asVBdend
p13
(lp14
g3
(g7
S'o\xf4R\x94\x04}`?'
p15
tp16
Rp17
asVAdend1
p18
(lp19
g3
(g7
S'\xee1\xe37iEe?'
p20
tp21
Rp22
asVAdend2
p23
(lp24
g3
(g7
S'\xc6T\xec\x99)\xa9t?'
p25
tp26
Rp27
asVAdend3
p28
(lp29
g3
(g7
S'\x8e@\x9c\x1b\x81\x1f|?'
p30
tp31
Rp32
as.