(dp0
Vsoma
p1
(lp2
cnumpy.core.multiarray
scalar
p3
(cnumpy
dtype
p4
(S'f8'
p5
I0
I1
tp6
Rp7
(I3
S'<'
p8
NNNI-1
I-1
I0
tp9
bS'\x87t\xe9\x88\x98\xbcV?'
p10
tp11
Rp12
asVBdend
p13
(lp14
g3
(g7
S'{-\x16\xdacAW?'
p15
tp16
Rp17
asVAdend1
p18
(lp19
g3
(g7
S'\xb1c\xe9\xfe\xf1\x16Y?'
p20
tp21
Rp22
asVAdend2
p23
(lp24
g3
(g7
S'\x9f&\xcc\xf6P\xd2[?'
p25
tp26
Rp27
asVAdend3
p28
(lp29
g3
(g7
S'\x9drD\xf3-\x06]?'
p30
tp31
Rp32
as.