(dp0
Vsoma
p1
(lp2
cnumpy.core.multiarray
scalar
p3
(cnumpy
dtype
p4
(S'f8'
p5
I0
I1
tp6
Rp7
(I3
S'<'
p8
NNNI-1
I-1
I0
tp9
bS'\xb2\x8c\xe9\xa3\xa8\xaeS?'
p10
tp11
Rp12
asVBdend
p13
(lp14
g3
(g7
S'Bl\x8f\xf5\x15\x00V?'
p15
tp16
Rp17
asVAdend1
p18
(lp19
g3
(g7
S'\x0e\x05[-\x89[[?'
p20
tp21
Rp22
asVAdend2
p23
(lp24
g3
(g7
S'~\n\xc2\xc6s\xfad?'
p25
tp26
Rp27
asVAdend3
p28
(lp29
g3
(g7
S']R\xdc\xa1\r\x08h?'
p30
tp31
Rp32
as.