(dp0
Vsoma
p1
(lp2
cnumpy.core.multiarray
scalar
p3
(cnumpy
dtype
p4
(S'f8'
p5
I0
I1
tp6
Rp7
(I3
S'<'
p8
NNNI-1
I-1
I0
tp9
bS'\xb0)@\x1b\xa7\x14T?'
p10
tp11
Rp12
asVBdend
p13
(lp14
g3
(g7
S'\t\x93\xddQ\xa1[Z?'
p15
tp16
Rp17
asVAdend1
p18
(lp19
g3
(g7
S'\xfd\x1f\x0c\xed^\xd5`?'
p20
tp21
Rp22
asVAdend2
p23
(lp24
g3
(g7
S'\xabH\xb2b\x83\x9fp?'
p25
tp26
Rp27
asVAdend3
p28
(lp29
g3
(g7
S"0'\xc6 Y\xb6u?"
p30
tp31
Rp32
as.